target datalayout = "e-m:e-p270:32:32-p271:32:32-p272:64:64-i64:64-i128:128-f80:128-n8:16:32:64-S128"
target triple = "x86_64-unknown-linux-gnu"

%"class.llvh::cl::OptionCategory" = type { %"class.llvh::StringRef", %"class.llvh::StringRef" }
%"class.llvh::StringRef" = type { ptr, i64 }

; Function Attrs: mustprogress nounwind uwtable
define linkonce_odr noundef nonnull align 8 dereferenceable(8) ptr @_ZSt3minImERKT_S2_S2_(ptr noundef nonnull align 8 dereferenceable(8) %__a, ptr noundef nonnull align 8 dereferenceable(8) %__b) #0 comdat {
entry:
  %retval = alloca ptr, align 8
  %__a.addr = alloca ptr, align 8
  %__b.addr = alloca ptr, align 8
  store ptr %__a, ptr %__a.addr, align 8
  store ptr %__b, ptr %__b.addr, align 8
  %0 = load ptr, ptr %__b.addr, align 8
  %1 = load i64, ptr %0, align 8
  %2 = load ptr, ptr %__a.addr, align 8
  %3 = load i64, ptr %2, align 8
  %cmp = icmp ult i64 %1, %3
  br i1 %cmp, label %if.then, label %if.end

if.then:                                          ; preds = %entry
  %4 = load ptr, ptr %__b.addr, align 8
  store ptr %4, ptr %retval, align 8
  br label %return

if.end:                                           ; preds = %entry
  %5 = load ptr, ptr %__a.addr, align 8
  store ptr %5, ptr %retval, align 8
  br label %return

return:                                           ; preds = %if.end, %if.then
  %6 = load ptr, ptr %retval, align 8
  ret ptr %6
}

; Function Attrs: mustprogress nounwind uwtable
define linkonce_odr hidden { ptr, i64 } @_ZNK4llvh2cl14OptionCategory7getNameEv(ptr noundef nonnull align 8 dereferenceable(32) %this) #0 comdat align 2 {
entry:
  %retval = alloca %"class.llvh::StringRef", align 8
  %this.addr = alloca ptr, align 8
  store ptr %this, ptr %this.addr, align 8
  %this1 = load ptr, ptr %this.addr, align 8
  %Name = getelementptr inbounds %"class.llvh::cl::OptionCategory", ptr %this1, i32 0, i32 0
  call void @llvm.memcpy.p0.p0.i64(ptr align 8 %retval, ptr align 8 %Name, i64 16, i1 false)
  %0 = load { ptr, i64 }, ptr %retval, align 8
  ret { ptr, i64 } %0
}

; Function Attrs: mustprogress nounwind uwtable
define internal noundef i32 @_ZN12_GLOBAL__N_122CategorizedHelpPrinter21OptionCategoryCompareEPKPN4llvh2cl14OptionCategoryES6_(ptr noundef %A, ptr noundef %B) #0 align 2 {
entry:
  %retval.i.i = alloca i32, align 4
  %Lhs.addr.i.i = alloca ptr, align 8
  %Rhs.addr.i.i = alloca ptr, align 8
  %Length.addr.i.i = alloca i64, align 8
  %retval.i = alloca i32, align 4
  %RHS.i = alloca %"class.llvh::StringRef", align 8
  %this.addr.i = alloca ptr, align 8
  %Res.i = alloca i32, align 4
  %A.addr = alloca ptr, align 8
  %B.addr = alloca ptr, align 8
  %ref.tmp = alloca %"class.llvh::StringRef", align 8
  %agg.tmp = alloca %"class.llvh::StringRef", align 8
  store ptr %A, ptr %A.addr, align 8
  store ptr %B, ptr %B.addr, align 8
  %0 = load ptr, ptr %A.addr, align 8
  %1 = load ptr, ptr %0, align 8
  %call = call { ptr, i64 } @_ZNK4llvh2cl14OptionCategory7getNameEv(ptr noundef nonnull align 8 dereferenceable(32) %1)
  %2 = getelementptr inbounds { ptr, i64 }, ptr %ref.tmp, i32 0, i32 0
  %3 = extractvalue { ptr, i64 } %call, 0
  store ptr %3, ptr %2, align 8
  %4 = getelementptr inbounds { ptr, i64 }, ptr %ref.tmp, i32 0, i32 1
  %5 = extractvalue { ptr, i64 } %call, 1
  store i64 %5, ptr %4, align 8
  %6 = load ptr, ptr %B.addr, align 8
  %7 = load ptr, ptr %6, align 8
  %call1 = call { ptr, i64 } @_ZNK4llvh2cl14OptionCategory7getNameEv(ptr noundef nonnull align 8 dereferenceable(32) %7)
  %8 = getelementptr inbounds { ptr, i64 }, ptr %agg.tmp, i32 0, i32 0
  %9 = extractvalue { ptr, i64 } %call1, 0
  store ptr %9, ptr %8, align 8
  %10 = getelementptr inbounds { ptr, i64 }, ptr %agg.tmp, i32 0, i32 1
  %11 = extractvalue { ptr, i64 } %call1, 1
  store i64 %11, ptr %10, align 8
  %12 = getelementptr inbounds { ptr, i64 }, ptr %agg.tmp, i32 0, i32 0
  %13 = load ptr, ptr %12, align 8
  %14 = getelementptr inbounds { ptr, i64 }, ptr %agg.tmp, i32 0, i32 1
  %15 = load i64, ptr %14, align 8
  store ptr %13, ptr %RHS.i, align 8
  %16 = getelementptr inbounds { ptr, i64 }, ptr %RHS.i, i32 0, i32 1
  store i64 %15, ptr %16, align 8
  store ptr %ref.tmp, ptr %this.addr.i, align 8
  %this1.i = load ptr, ptr %this.addr.i, align 8
  %17 = load ptr, ptr %this1.i, align 8
  %18 = load ptr, ptr %RHS.i, align 8
  %Length.i = getelementptr inbounds %"class.llvh::StringRef", ptr %this1.i, i32 0, i32 1
  %Length3.i = getelementptr inbounds %"class.llvh::StringRef", ptr %RHS.i, i32 0, i32 1
  %call.i = call noundef nonnull align 8 dereferenceable(8) ptr @_ZSt3minImERKT_S2_S2_(ptr noundef nonnull align 8 dereferenceable(8) %Length.i, ptr noundef nonnull align 8 dereferenceable(8) %Length3.i)
  %19 = load i64, ptr %call.i, align 8
  store ptr %17, ptr %Lhs.addr.i.i, align 8
  store ptr %18, ptr %Rhs.addr.i.i, align 8
  store i64 %19, ptr %Length.addr.i.i, align 8
  %20 = load i64, ptr %Length.addr.i.i, align 8
  %cmp.i.i = icmp eq i64 %20, 0
  br i1 %cmp.i.i, label %if.then.i.i, label %if.end.i.i

if.then.i.i:                                      ; preds = %entry
  store i32 0, ptr %retval.i.i, align 4
  br label %_ZN4llvh9StringRef13compareMemoryEPKcS2_m.exit.i

if.end.i.i:                                       ; preds = %entry
  %21 = load ptr, ptr %Lhs.addr.i.i, align 8
  %22 = load ptr, ptr %Rhs.addr.i.i, align 8
  %23 = load i64, ptr %Length.addr.i.i, align 8
  %call.i.i = call i32 @memcmp(ptr noundef %21, ptr noundef %22, i64 noundef %23) #14
  store i32 %call.i.i, ptr %retval.i.i, align 4
  br label %_ZN4llvh9StringRef13compareMemoryEPKcS2_m.exit.i

_ZN4llvh9StringRef13compareMemoryEPKcS2_m.exit.i: ; preds = %if.end.i.i, %if.then.i.i
  %24 = load i32, ptr %retval.i.i, align 4
  store i32 %24, ptr %Res.i, align 4
  %25 = load i32, ptr %Res.i, align 4
  %tobool.i = icmp ne i32 %25, 0
  br i1 %tobool.i, label %if.then.i, label %if.end.i

if.then.i:                                        ; preds = %_ZN4llvh9StringRef13compareMemoryEPKcS2_m.exit.i
  %26 = load i32, ptr %Res.i, align 4
  %cmp.i = icmp slt i32 %26, 0
  %cond.i = select i1 %cmp.i, i32 -1, i32 1
  store i32 %cond.i, ptr %retval.i, align 4
  br label %_ZNK4llvh9StringRef7compareES0_.exit

if.end.i:                                         ; preds = %_ZN4llvh9StringRef13compareMemoryEPKcS2_m.exit.i
  %Length5.i = getelementptr inbounds %"class.llvh::StringRef", ptr %this1.i, i32 0, i32 1
  %27 = load i64, ptr %Length5.i, align 8
  %Length6.i = getelementptr inbounds %"class.llvh::StringRef", ptr %RHS.i, i32 0, i32 1
  %28 = load i64, ptr %Length6.i, align 8
  %cmp7.i = icmp eq i64 %27, %28
  br i1 %cmp7.i, label %if.then8.i, label %if.end9.i

if.then8.i:                                       ; preds = %if.end.i
  store i32 0, ptr %retval.i, align 4
  br label %_ZNK4llvh9StringRef7compareES0_.exit

if.end9.i:                                        ; preds = %if.end.i
  %Length10.i = getelementptr inbounds %"class.llvh::StringRef", ptr %this1.i, i32 0, i32 1
  %29 = load i64, ptr %Length10.i, align 8
  %Length11.i = getelementptr inbounds %"class.llvh::StringRef", ptr %RHS.i, i32 0, i32 1
  %30 = load i64, ptr %Length11.i, align 8
  %cmp12.i = icmp ult i64 %29, %30
  %cond13.i = select i1 %cmp12.i, i32 -1, i32 1
  store i32 %cond13.i, ptr %retval.i, align 4
  br label %_ZNK4llvh9StringRef7compareES0_.exit

_ZNK4llvh9StringRef7compareES0_.exit:             ; preds = %if.end9.i, %if.then8.i, %if.then.i
  %31 = load i32, ptr %retval.i, align 4
  ret i32 %31
}