; Function Attrs: mustprogress nofree nounwind willreturn memory(read, inaccessiblemem: none) uwtable
define internal noundef i32 @_ZN12_GLOBAL__N_122CategorizedHelpPrinter21OptionCategoryCompareEPKPN4llvh2cl14OptionCategoryES6_(ptr nocapture noundef readonly %A, ptr nocapture noundef readonly %B) #18 align 2 {
entry:
  %0 = load ptr, ptr %A, align 8
  %retval.sroa.2.0.Name.sroa_idx.i = getelementptr inbounds i8, ptr %0, i64 8
  %retval.sroa.2.0.copyload.i = load i64, ptr %retval.sroa.2.0.Name.sroa_idx.i, align 8
  %1 = load ptr, ptr %B, align 8
  %retval.sroa.2.0.Name.sroa_idx.i6 = getelementptr inbounds i8, ptr %1, i64 8
  %retval.sroa.2.0.copyload.i7 = load i64, ptr %retval.sroa.2.0.Name.sroa_idx.i6, align 8
  %.sroa.speculated = tail call i64 @llvm.umin.i64(i64 %retval.sroa.2.0.copyload.i7, i64 %retval.sroa.2.0.copyload.i)
  %cmp.i.i = icmp eq i64 %.sroa.speculated, 0
  br i1 %cmp.i.i, label %if.end.i, label %_ZN4llvh9StringRef13compareMemoryEPKcS2_m.exit.i

_ZN4llvh9StringRef13compareMemoryEPKcS2_m.exit.i: ; preds = %entry
  %retval.sroa.0.0.copyload.i5 = load ptr, ptr %1, align 8
  %retval.sroa.0.0.copyload.i = load ptr, ptr %0, align 8
  %call.i.i = tail call i32 @memcmp(ptr noundef %retval.sroa.0.0.copyload.i, ptr noundef %retval.sroa.0.0.copyload.i5, i64 noundef %.sroa.speculated) #31
  %tobool.i.not = icmp eq i32 %call.i.i, 0
  br i1 %tobool.i.not, label %if.end.i, label %if.then.i

if.then.i:                                        ; preds = %_ZN4llvh9StringRef13compareMemoryEPKcS2_m.exit.i
  %cmp.i.inv = icmp sgt i32 %call.i.i, -1
  %cond.i = select i1 %cmp.i.inv, i32 1, i32 -1
  br label %_ZNK4llvh9StringRef7compareES0_.exit

if.end.i:                                         ; preds = %entry, %_ZN4llvh9StringRef13compareMemoryEPKcS2_m.exit.i
  %cmp7.i = icmp eq i64 %retval.sroa.2.0.copyload.i, %retval.sroa.2.0.copyload.i7
  br i1 %cmp7.i, label %_ZNK4llvh9StringRef7compareES0_.exit, label %if.end9.i

if.end9.i:                                        ; preds = %if.end.i
  %cmp12.i = icmp ult i64 %retval.sroa.2.0.copyload.i, %retval.sroa.2.0.copyload.i7
  %cond13.i = select i1 %cmp12.i, i32 -1, i32 1
  br label %_ZNK4llvh9StringRef7compareES0_.exit

_ZNK4llvh9StringRef7compareES0_.exit:             ; preds = %if.end.i, %if.end9.i, %if.then.i
  %retval.i.0 = phi i32 [ %cond.i, %if.then.i ], [ %cond13.i, %if.end9.i ], [ 0, %if.end.i ]
  ret i32 %retval.i.0
}